; ModuleID = '60/1344.c'
source_filename = "60/1344.c"
target datalayout = "e-m:e-p270:32:32-p271:32:32-p272:64:64-i64:64-f80:128-n8:16:32:64-S128"
target triple = "x86_64-pc-linux-gnu"

@.str = private unnamed_addr constant [3 x i8] c"%d\00", align 1
@.str.1 = private unnamed_addr constant [6 x i8] c"empty\00", align 1
@.str.2 = private unnamed_addr constant [7 x i8] c"%d %d\0A\00", align 1

; Function Attrs: noinline nounwind uwtable
define dso_local i32 @main() #0 {
  %1 = alloca i32, align 4
  %2 = alloca i32, align 4
  %3 = alloca i32, align 4
  %4 = alloca i32, align 4
  %5 = alloca i32, align 4
  store i32 0, i32* %1, align 4
  %6 = call i32 (i8*, ...) @__isoc99_scanf(i8* getelementptr inbounds ([3 x i8], [3 x i8]* @.str, i64 0, i64 0), i32* %2)
  %7 = load i32, i32* %2, align 4
  %8 = icmp slt i32 %7, 5
  br i1 %8, label %9, label %11

9:                                                ; preds = %0
  %10 = call i32 (i8*, ...) @printf(i8* getelementptr inbounds ([6 x i8], [6 x i8]* @.str.1, i64 0, i64 0))
  br label %52

11:                                               ; preds = %0
  store i32 3, i32* %3, align 4
  br label %12

12:                                               ; preds = %48, %11
  %13 = load i32, i32* %3, align 4
  %14 = load i32, i32* %2, align 4
  %15 = sub nsw i32 %14, 2
  %16 = icmp sle i32 %13, %15
  br i1 %16, label %17, label %51

17:                                               ; preds = %12
  store i32 2, i32* %4, align 4
  br label %18

18:                                               ; preds = %36, %17
  %19 = load i32, i32* %4, align 4
  %20 = load i32, i32* %3, align 4
  %21 = sdiv i32 %20, 2
  %22 = icmp sle i32 %19, %21
  br i1 %22, label %23, label %39

23:                                               ; preds = %18
  %24 = load i32, i32* %3, align 4
  %25 = load i32, i32* %4, align 4
  %26 = srem i32 %24, %25
  %27 = icmp eq i32 %26, 0
  br i1 %27, label %34, label %28

28:                                               ; preds = %23
  %29 = load i32, i32* %3, align 4
  %30 = add nsw i32 %29, 2
  %31 = load i32, i32* %4, align 4
  %32 = srem i32 %30, %31
  %33 = icmp eq i32 %32, 0
  br i1 %33, label %34, label %35

34:                                               ; preds = %28, %23
  store i32 0, i32* %5, align 4
  br label %39

35:                                               ; preds = %28
  br label %36

36:                                               ; preds = %35
  %37 = load i32, i32* %4, align 4
  %38 = add nsw i32 %37, 1
  store i32 %38, i32* %4, align 4
  br label %18

39:                                               ; preds = %34, %18
  %40 = load i32, i32* %5, align 4
  %41 = icmp ne i32 %40, 0
  br i1 %41, label %42, label %47

42:                                               ; preds = %39
  %43 = load i32, i32* %3, align 4
  %44 = load i32, i32* %3, align 4
  %45 = add nsw i32 %44, 2
  %46 = call i32 (i8*, ...) @printf(i8* getelementptr inbounds ([7 x i8], [7 x i8]* @.str.2, i64 0, i64 0), i32 %43, i32 %45)
  br label %47

47:                                               ; preds = %42, %39
  br label %48

48:                                               ; preds = %47
  %49 = load i32, i32* %3, align 4
  %50 = add nsw i32 %49, 1
  store i32 %50, i32* %3, align 4
  store i32 1, i32* %5, align 4
  br label %12

51:                                               ; preds = %12
  br label %52

52:                                               ; preds = %51, %9
  %53 = load i32, i32* %1, align 4
  ret i32 %53
}

declare dso_local i32 @__isoc99_scanf(i8*, ...) #1

declare dso_local i32 @printf(i8*, ...) #1


!llvm.module.flags = !{!0}
!llvm.ident = !{!1}

!0 = !{i32 1, !"wchar_size", i32 4}
!1 = !{!"clang version 10.0.0-4ubuntu1 "}
