; ModuleID = 'source-C-CXX/59/1344.c'
source_filename = "source-C-CXX/59/1344.c"
target datalayout = "e-m:e-p270:32:32-p271:32:32-p272:64:64-i64:64-f80:128-n8:16:32:64-S128"
target triple = "x86_64-pc-linux-gnu"

@.str = private unnamed_addr constant [3 x i8] c"%d\00", align 1
@.str.1 = private unnamed_addr constant [6 x i8] c"empty\00", align 1
@.str.2 = private unnamed_addr constant [7 x i8] c"%d %d\0A\00", align 1

; Function Attrs: nofree nounwind sspstrong uwtable
define dso_local i32 @main() local_unnamed_addr #0 {
  %1 = alloca i32, align 4
  %2 = bitcast i32* %1 to i8*
  call void @llvm.lifetime.start.p0i8(i64 4, i8* nonnull %2) #4
  %3 = call i32 (i8*, ...) @__isoc99_scanf(i8* getelementptr inbounds ([3 x i8], [3 x i8]* @.str, i64 0, i64 0), i32* nonnull %1)
  %4 = load i32, i32* %1, align 4, !tbaa !5
  %5 = icmp slt i32 %4, 5
  br i1 %5, label %6, label %8

6:                                                ; preds = %0
  %7 = call i32 (i8*, ...) @printf(i8* nonnull dereferenceable(1) getelementptr inbounds ([6 x i8], [6 x i8]* @.str.1, i64 0, i64 0))
  br label %33

8:                                                ; preds = %0, %28
  %9 = phi i32 [ %29, %28 ], [ %4, %0 ]
  %10 = phi i32 [ %30, %28 ], [ 3, %0 ]
  %11 = lshr i32 %10, 1
  %12 = call i32 @llvm.umax.i32(i32 %11, i32 2)
  %13 = add nuw nsw i32 %10, 2
  %14 = icmp ult i32 %10, 4
  br i1 %14, label %25, label %18

15:                                               ; preds = %22
  %16 = add nuw nsw i32 %19, 1
  %17 = icmp eq i32 %19, %12
  br i1 %17, label %25, label %18, !llvm.loop !9

18:                                               ; preds = %8, %15
  %19 = phi i32 [ %16, %15 ], [ 2, %8 ]
  %20 = urem i32 %10, %19
  %21 = icmp eq i32 %20, 0
  br i1 %21, label %28, label %22

22:                                               ; preds = %18
  %23 = urem i32 %13, %19
  %24 = icmp eq i32 %23, 0
  br i1 %24, label %28, label %15

25:                                               ; preds = %15, %8
  %26 = call i32 (i8*, ...) @printf(i8* nonnull dereferenceable(1) getelementptr inbounds ([7 x i8], [7 x i8]* @.str.2, i64 0, i64 0), i32 %10, i32 %13)
  %27 = load i32, i32* %1, align 4, !tbaa !5
  br label %28

28:                                               ; preds = %22, %18, %25
  %29 = phi i32 [ %27, %25 ], [ %9, %18 ], [ %9, %22 ]
  %30 = add nuw nsw i32 %10, 1
  %31 = add nsw i32 %29, -2
  %32 = icmp slt i32 %10, %31
  br i1 %32, label %8, label %33, !llvm.loop !11

33:                                               ; preds = %28, %6
  call void @llvm.lifetime.end.p0i8(i64 4, i8* nonnull %2) #4
  ret i32 0
}

; Function Attrs: argmemonly mustprogress nofree nosync nounwind willreturn
declare void @llvm.lifetime.start.p0i8(i64 immarg, i8* nocapture) #1

; Function Attrs: nofree nounwind
declare noundef i32 @__isoc99_scanf(i8* nocapture noundef readonly, ...) local_unnamed_addr #2

; Function Attrs: nofree nounwind
declare noundef i32 @printf(i8* nocapture noundef readonly, ...) local_unnamed_addr #2

; Function Attrs: argmemonly mustprogress nofree nosync nounwind willreturn
declare void @llvm.lifetime.end.p0i8(i64 immarg, i8* nocapture) #1

; Function Attrs: nofree nosync nounwind readnone speculatable willreturn
declare i32 @llvm.umax.i32(i32, i32) #3


!llvm.module.flags = !{!0, !1, !2, !3}
!llvm.ident = !{!4}

!0 = !{i32 1, !"wchar_size", i32 4}
!1 = !{i32 7, !"PIC Level", i32 2}
!2 = !{i32 7, !"PIE Level", i32 2}
!3 = !{i32 7, !"uwtable", i32 1}
!4 = !{!"clang version 13.0.0"}
!5 = !{!6, !6, i64 0}
!6 = !{!"int", !7, i64 0}
!7 = !{!"omnipotent char", !8, i64 0}
!8 = !{!"Simple C/C++ TBAA"}
!9 = distinct !{!9, !10}
!10 = !{!"llvm.loop.mustprogress"}
!11 = distinct !{!11, !10}
